#include <math.h>
#include <stdio.h>
#include <stdlib.h>
#include <string.h>

void main()
{
	char a[100];
	char *p;
	int n,j,i,t;
	p=gets(a);
	n=strlen(a);
	t=0;
	for(i=n-1;i>=0;i--)
	{
		if(*(p+i)!=' ') t++;
		if(*(p+i)==' ')
		{
			for(j=1; j<=t; j++)
			{
				printf("%c",*(p+i+j));
			}
			printf(" ");
			t=0;
		}
		if(i==0)
		{
			for(j=0; j<=t-1;j++)
			{
				printf("%c",*(p+i+j));
			}
			printf("\n");
		}
	}
}